target datalayout = "e-m:e-p270:32:32-p271:32:32-p272:64:64-i64:64-i128:128-f80:128-n8:16:32:64-S128"
target triple = "x86_64-pc-linux-gnu"

%"struct.realclosure::mpbq_config::interval" = type { %class.mpbq, %class.mpbq, i8, i8, i8, i8, [4 x i8] }
%class.mpbq = type <{ %class.mpz, i32, [4 x i8] }>
%class.mpz = type { i32, i8, ptr }
%"class.realclosure::manager" = type { ptr }
%class.im_default_config = type { ptr }
%"struct.realclosure::mpbq_config" = type { ptr }
%class.mpq = type { %class.mpz, %class.mpz }
%"struct.realclosure::manager::imp" = type <{ ptr, ptr, i8, [7 x i8], ptr, %class.mpz_matrix_manager, %"struct.realclosure::mpbq_config::numeral_manager", %class.interval_manager, %class.interval_manager.0, [3 x %class.ptr_vector], ptr, %"struct.realclosure::mk_pi_interval", ptr, %"struct.realclosure::mk_e_interval", ptr, %class.ptr_vector.1, %class.ptr_vector, i8, i8, [2 x i8], i32, i32, i32, %class._scoped_numeral, %class._scoped_numeral, i8, [3 x i8], i32, i8, [7 x i8] }>
%class.mpz_matrix_manager = type { ptr, ptr }
%"struct.realclosure::mpbq_config::numeral_manager" = type <{ %class.mpbq_manager, i32, i8, [3 x i8] }>
%class.mpbq_manager = type { ptr, %class.mpz, %class.mpz, %class.mpbq, %class.mpz, %class.mpz, %class.mpz, %class.mpbq, %class.mpbq, %class.mpz, %class.mpz, %class.mpz }
%class.interval_manager = type { ptr, %class.im_default_config, %class.mpq, %class.mpq, %class.mpq, %class.mpq, %class.mpq, %class.mpq, %class.mpq, %class.mpq, %class.mpq, i32, [4 x i8], %"struct.im_default_config::interval", %"struct.im_default_config::interval", %"struct.im_default_config::interval", %"struct.im_default_config::interval" }
%"struct.im_default_config::interval" = type <{ %class.mpq, %class.mpq, i8, [7 x i8] }>
%class.interval_manager.0 = type { ptr, %"struct.realclosure::mpbq_config", %class.mpbq, %class.mpbq, %class.mpbq, %class.mpbq, %class.mpbq, %class.mpbq, %class.mpbq, %class.mpbq, %class.mpbq, i32, [4 x i8], %"struct.realclosure::mpbq_config::interval", %"struct.realclosure::mpbq_config::interval", %"struct.realclosure::mpbq_config::interval", %"struct.realclosure::mpbq_config::interval" }
%"struct.realclosure::mk_pi_interval" = type { %"class.realclosure::mk_interval" }
%"class.realclosure::mk_interval" = type { ptr }
%"struct.realclosure::mk_e_interval" = type { %"class.realclosure::mk_interval" }
%class.ptr_vector.1 = type { %class.vector.2 }
%class.vector.2 = type { ptr }
%class.ptr_vector = type { %class.vector }
%class.vector = type { ptr }
%class._scoped_numeral = type { ptr, %class.mpbq }
%"class.realclosure::num" = type { ptr }
%"struct.realclosure::rational_value" = type { %"struct.realclosure::value", %class.mpq }
%"struct.realclosure::value" = type { i32, i8, [3 x i8], %"struct.realclosure::mpbq_config::interval", ptr }

@.str.1 = private unnamed_addr constant [117 x i8] c"generated/home/dtcxzyw/WorkSpace/Projects/compilers/llvm-opt-benchmark/bench/z3/z3/src/util/small_object_allocator.h\00", align 1
@.str.2 = private unnamed_addr constant [29 x i8] c"UNEXPECTED CODE WAS REACHED.\00", align 1

; Function Attrs: mustprogress uwtable
define linkonce_odr hidden void @_ZN4mpbqC2Ev(ptr noundef nonnull align 8 dereferenceable(20) %0) unnamed_addr #6 comdat align 2 {
  %2 = alloca ptr, align 8
  store ptr %0, ptr %2, align 8, !tbaa !8
  %3 = load ptr, ptr %2, align 8
  %4 = getelementptr inbounds nuw %class.mpbq, ptr %3, i32 0, i32 0
  call void @_ZN3mpzC2Ei(ptr noundef nonnull align 8 dereferenceable(16) %4, i32 noundef 0)
  %5 = getelementptr inbounds nuw %class.mpbq, ptr %3, i32 0, i32 1
  store i32 0, ptr %5, align 8, !tbaa !186
  ret void
}

; Function Attrs: mustprogress nounwind uwtable
define linkonce_odr hidden void @_ZN3mpzC2Ei(ptr noundef nonnull align 8 dereferenceable(16) %0, i32 noundef %1) unnamed_addr #4 comdat align 2 {
  %3 = alloca ptr, align 8
  %4 = alloca i32, align 4
  store ptr %0, ptr %3, align 8, !tbaa !94
  store i32 %1, ptr %4, align 4, !tbaa !82
  %5 = load ptr, ptr %3, align 8
  %6 = getelementptr inbounds nuw %class.mpz, ptr %5, i32 0, i32 0
  %7 = load i32, ptr %4, align 4, !tbaa !82
  store i32 %7, ptr %6, align 8, !tbaa !182
  %8 = getelementptr inbounds nuw %class.mpz, ptr %5, i32 0, i32 1
  %9 = load i8, ptr %8, align 4
  %10 = and i8 %9, -2
  %11 = or i8 %10, 0
  store i8 %11, ptr %8, align 4
  %12 = getelementptr inbounds nuw %class.mpz, ptr %5, i32 0, i32 1
  %13 = load i8, ptr %12, align 4
  %14 = and i8 %13, -3
  %15 = or i8 %14, 0
  store i8 %15, ptr %12, align 4
  %16 = getelementptr inbounds nuw %class.mpz, ptr %5, i32 0, i32 2
  store ptr null, ptr %16, align 8, !tbaa !183
  ret void
}

; Function Attrs: mustprogress nounwind uwtable
define linkonce_odr hidden void @_ZN3mpzC2Ev(ptr noundef nonnull align 8 dereferenceable(16) %0) unnamed_addr #4 comdat align 2 {
  %2 = alloca ptr, align 8
  store ptr %0, ptr %2, align 8, !tbaa !94
  %3 = load ptr, ptr %2, align 8
  %4 = getelementptr inbounds nuw %class.mpz, ptr %3, i32 0, i32 0
  store i32 0, ptr %4, align 8, !tbaa !182
  %5 = getelementptr inbounds nuw %class.mpz, ptr %3, i32 0, i32 1
  %6 = load i8, ptr %5, align 4
  %7 = and i8 %6, -2
  %8 = or i8 %7, 0
  store i8 %8, ptr %5, align 4
  %9 = getelementptr inbounds nuw %class.mpz, ptr %3, i32 0, i32 1
  %10 = load i8, ptr %9, align 4
  %11 = and i8 %10, -3
  %12 = or i8 %11, 0
  store i8 %12, ptr %9, align 4
  %13 = getelementptr inbounds nuw %class.mpz, ptr %3, i32 0, i32 2
  store ptr null, ptr %13, align 8, !tbaa !183
  ret void
}

; Function Attrs: mustprogress uwtable
define linkonce_odr hidden void @_ZN11realclosure11mpbq_config8intervalC2Ev(ptr noundef nonnull align 8 dereferenceable(52) %0) unnamed_addr #6 comdat align 2 {
  %2 = alloca ptr, align 8
  store ptr %0, ptr %2, align 8, !tbaa !3
  %3 = load ptr, ptr %2, align 8
  %4 = getelementptr inbounds nuw %"struct.realclosure::mpbq_config::interval", ptr %3, i32 0, i32 0
  call void @_ZN4mpbqC2Ev(ptr noundef nonnull align 8 dereferenceable(20) %4)
  %5 = getelementptr inbounds nuw %"struct.realclosure::mpbq_config::interval", ptr %3, i32 0, i32 1
  call void @_ZN4mpbqC2Ev(ptr noundef nonnull align 8 dereferenceable(20) %5)
  %6 = getelementptr inbounds nuw %"struct.realclosure::mpbq_config::interval", ptr %3, i32 0, i32 2
  store i8 1, ptr %6, align 8, !tbaa !187
  %7 = getelementptr inbounds nuw %"struct.realclosure::mpbq_config::interval", ptr %3, i32 0, i32 3
  store i8 1, ptr %7, align 1, !tbaa !188
  %8 = getelementptr inbounds nuw %"struct.realclosure::mpbq_config::interval", ptr %3, i32 0, i32 4
  store i8 1, ptr %8, align 2, !tbaa !189
  %9 = getelementptr inbounds nuw %"struct.realclosure::mpbq_config::interval", ptr %3, i32 0, i32 5
  store i8 1, ptr %9, align 1, !tbaa !190
  ret void
}

; Function Attrs: mustprogress nounwind uwtable
define linkonce_odr hidden noundef i32 @_ZN11mpz_managerILb0EE4signERK3mpz(ptr noundef nonnull align 8 dereferenceable(16) %0) #4 comdat align 2 {
  %2 = alloca ptr, align 8
  store ptr %0, ptr %2, align 8, !tbaa !94
  %3 = load ptr, ptr %2, align 8, !tbaa !94
  %4 = getelementptr inbounds nuw %class.mpz, ptr %3, i32 0, i32 0
  %5 = load i32, ptr %4, align 8, !tbaa !182
  ret i32 %5
}

; Function Attrs: noinline noreturn nounwind uwtable
define linkonce_odr hidden void @__clang_call_terminate(ptr noundef %0) #7 comdat {
  %2 = call ptr @__cxa_begin_catch(ptr %0) #3
  call void @_ZSt9terminatev() #20
  unreachable
}

; Function Attrs: mustprogress uwtable
define linkonce_odr hidden void @_ZN3mpqC2Ev(ptr noundef nonnull align 8 dereferenceable(32) %0) unnamed_addr #6 comdat align 2 {
  %2 = alloca ptr, align 8
  store ptr %0, ptr %2, align 8, !tbaa !96
  %3 = load ptr, ptr %2, align 8
  %4 = getelementptr inbounds nuw %class.mpq, ptr %3, i32 0, i32 0
  call void @_ZN3mpzC2Ev(ptr noundef nonnull align 8 dereferenceable(16) %4)
  %5 = getelementptr inbounds nuw %class.mpq, ptr %3, i32 0, i32 1
  call void @_ZN3mpzC2Ei(ptr noundef nonnull align 8 dereferenceable(16) %5, i32 noundef 1)
  ret void
}

; Function Attrs: mustprogress uwtable
define linkonce_odr hidden void @_ZN11realclosure5valueC2Eb(ptr noundef nonnull align 8 dereferenceable(72) %0, i1 noundef zeroext %1) unnamed_addr #6 comdat align 2 {
  %3 = alloca ptr, align 8
  %4 = alloca i8, align 1
  store ptr %0, ptr %3, align 8, !tbaa !99
  %5 = zext i1 %1 to i8
  store i8 %5, ptr %4, align 1, !tbaa !108
  %6 = load ptr, ptr %3, align 8
  %7 = getelementptr inbounds nuw %"struct.realclosure::value", ptr %6, i32 0, i32 0
  store i32 0, ptr %7, align 8, !tbaa !175
  %8 = getelementptr inbounds nuw %"struct.realclosure::value", ptr %6, i32 0, i32 1
  %9 = load i8, ptr %4, align 1, !tbaa !108, !range !109, !noundef !110
  %10 = trunc i8 %9 to i1
  %11 = zext i1 %10 to i8
  store i8 %11, ptr %8, align 4, !tbaa !205
  %12 = getelementptr inbounds nuw %"struct.realclosure::value", ptr %6, i32 0, i32 3
  call void @_ZN11realclosure11mpbq_config8intervalC2Ev(ptr noundef nonnull align 8 dereferenceable(52) %12)
  %13 = getelementptr inbounds nuw %"struct.realclosure::value", ptr %6, i32 0, i32 4
  store ptr null, ptr %13, align 8, !tbaa !206
  ret void
}

; Function Attrs: mustprogress uwtable
define linkonce_odr hidden noundef zeroext i1 @_ZN11mpz_managerILb0EE7is_zeroERK3mpz(ptr noundef nonnull align 8 dereferenceable(16) %0) #6 comdat align 2 {
  %2 = alloca ptr, align 8
  store ptr %0, ptr %2, align 8, !tbaa !94
  %3 = load ptr, ptr %2, align 8, !tbaa !94
  %4 = call noundef i32 @_ZN11mpz_managerILb0EE4signERK3mpz(ptr noundef nonnull align 8 dereferenceable(16) %3)
  %5 = icmp eq i32 %4, 0
  ret i1 %5
}

; Function Attrs: inlinehint mustprogress nounwind uwtable
define linkonce_odr hidden void @_ZdlPvR22small_object_allocator(ptr noundef %0, ptr noundef nonnull align 8 dereferenceable(520) %1) #5 comdat personality ptr @__gxx_personality_v0 {
  %3 = alloca ptr, align 8
  %4 = alloca ptr, align 8
  store ptr %0, ptr %3, align 8, !tbaa !127
  store ptr %1, ptr %4, align 8, !tbaa !23
  invoke void @_Z26notify_assertion_violationPKciS0_(ptr noundef @.str.1, i32 noundef 55, ptr noundef @.str.2)
          to label %5 unwind label %7

5:                                                ; preds = %2
  invoke void @_Z18invoke_exit_actionj(i32 noundef 114)
          to label %6 unwind label %7

6:                                                ; preds = %5
  ret void

7:                                                ; preds = %5, %2
  %8 = landingpad { ptr, i32 }
          catch ptr null
  %9 = extractvalue { ptr, i32 } %8, 0
  call void @__clang_call_terminate(ptr %9) #20
  unreachable
}

; Function Attrs: mustprogress uwtable
define linkonce_odr hidden void @_ZN11realclosure14rational_valueC2Ev(ptr noundef nonnull align 8 dereferenceable(104) %0) unnamed_addr #6 comdat align 2 {
  %2 = alloca ptr, align 8
  store ptr %0, ptr %2, align 8, !tbaa !173
  %3 = load ptr, ptr %2, align 8
  call void @_ZN11realclosure5valueC2Eb(ptr noundef nonnull align 8 dereferenceable(72) %3, i1 noundef zeroext true)
  %4 = getelementptr inbounds nuw %"struct.realclosure::rational_value", ptr %3, i32 0, i32 1
  call void @_ZN3mpqC2Ev(ptr noundef nonnull align 8 dereferenceable(32) %4)
  ret void
}

; Function Attrs: inlinehint mustprogress uwtable
define linkonce_odr hidden noundef ptr @_ZnwmR22small_object_allocator(i64 noundef %0, ptr noundef nonnull align 8 dereferenceable(520) %1) #9 comdat {
  %3 = alloca i64, align 8
  %4 = alloca ptr, align 8
  store i64 %0, ptr %3, align 8, !tbaa !203
  store ptr %1, ptr %4, align 8, !tbaa !23
  %5 = load ptr, ptr %4, align 8, !tbaa !23
  %6 = load i64, ptr %3, align 8, !tbaa !203
  %7 = call noundef ptr @_ZN22small_object_allocator8allocateEm(ptr noundef nonnull align 8 dereferenceable(520) %5, i64 noundef %6)
  ret ptr %7
}

; Function Attrs: mustprogress nounwind uwtable
define linkonce_odr hidden noundef nonnull align 8 dereferenceable(520) ptr @_ZN11realclosure7manager3imp9allocatorEv(ptr noundef nonnull align 8 dereferenceable(1497) %0) #4 comdat align 2 {
  %2 = alloca ptr, align 8
  store ptr %0, ptr %2, align 8, !tbaa !28
  %3 = load ptr, ptr %2, align 8
  %4 = getelementptr inbounds nuw %"struct.realclosure::manager::imp", ptr %3, i32 0, i32 1
  %5 = load ptr, ptr %4, align 8, !tbaa !29
  ret ptr %5
}

; Function Attrs: mustprogress uwtable
define linkonce_odr hidden noundef zeroext i1 @_ZN11mpq_managerILb0EE7is_zeroERK3mpz(ptr noundef nonnull align 8 dereferenceable(16) %0) #6 comdat align 2 {
  %2 = alloca ptr, align 8
  store ptr %0, ptr %2, align 8, !tbaa !94
  %3 = load ptr, ptr %2, align 8, !tbaa !94
  %4 = call noundef zeroext i1 @_ZN11mpz_managerILb0EE7is_zeroERK3mpz(ptr noundef nonnull align 8 dereferenceable(16) %3)
  ret i1 %4
}

; Function Attrs: mustprogress uwtable
define linkonce_odr hidden void @_ZN11realclosure7manager3imp16update_mpq_valueIK3mpqEEvRNS_3numERT_(ptr noundef nonnull align 8 dereferenceable(1497) %0, ptr noundef nonnull align 8 dereferenceable(8) %1, ptr noundef nonnull align 8 dereferenceable(32) %2) #6 comdat align 2 {
  %4 = alloca ptr, align 8
  %5 = alloca ptr, align 8
  %6 = alloca ptr, align 8
  store ptr %0, ptr %4, align 8, !tbaa !28
  store ptr %1, ptr %5, align 8, !tbaa !76
  store ptr %2, ptr %6, align 8, !tbaa !96
  %7 = load ptr, ptr %4, align 8
  %8 = load ptr, ptr %5, align 8, !tbaa !76
  %9 = getelementptr inbounds nuw %"class.realclosure::num", ptr %8, i32 0, i32 0
  %10 = load ptr, ptr %9, align 8, !tbaa !78
  %11 = load ptr, ptr %6, align 8, !tbaa !96
  call void @_ZN11realclosure7manager3imp16update_mpq_valueIK3mpqEEvPNS_5valueERT_(ptr noundef nonnull align 8 dereferenceable(1497) %7, ptr noundef %10, ptr noundef nonnull align 8 dereferenceable(32) %11)
  ret void
}

; Function Attrs: mustprogress nounwind uwtable
define linkonce_odr hidden void @_ZN11realclosure7manager3imp7inc_refEPNS_5valueE(ptr noundef nonnull align 8 dereferenceable(1497) %0, ptr noundef %1) #4 comdat align 2 {
  %3 = alloca ptr, align 8
  %4 = alloca ptr, align 8
  store ptr %0, ptr %3, align 8, !tbaa !28
  store ptr %1, ptr %4, align 8, !tbaa !99
  %5 = load ptr, ptr %4, align 8, !tbaa !99
  %6 = icmp ne ptr %5, null
  br i1 %6, label %7, label %12

7:                                                ; preds = %2
  %8 = load ptr, ptr %4, align 8, !tbaa !99
  %9 = getelementptr inbounds nuw %"struct.realclosure::value", ptr %8, i32 0, i32 0
  %10 = load i32, ptr %9, align 8, !tbaa !175
  %11 = add i32 %10, 1
  store i32 %11, ptr %9, align 8, !tbaa !175
  br label %12

12:                                               ; preds = %7, %2
  ret void
}

; Function Attrs: mustprogress uwtable
define linkonce_odr hidden noundef ptr @_ZN11realclosure7manager3imp11mk_rationalEv(ptr noundef nonnull align 8 dereferenceable(1497) %0) #6 comdat align 2 personality ptr @__gxx_personality_v0 {
  %2 = alloca ptr, align 8
  %3 = alloca ptr, align 8
  %4 = alloca i32, align 4
  store ptr %0, ptr %2, align 8, !tbaa !28
  %5 = load ptr, ptr %2, align 8
  %6 = call noundef nonnull align 8 dereferenceable(520) ptr @_ZN11realclosure7manager3imp9allocatorEv(ptr noundef nonnull align 8 dereferenceable(1497) %5)
  %7 = call noundef ptr @_ZnwmR22small_object_allocator(i64 noundef 104, ptr noundef nonnull align 8 dereferenceable(520) %6)
  invoke void @_ZN11realclosure14rational_valueC2Ev(ptr noundef nonnull align 8 dereferenceable(104) %7)
          to label %8 unwind label %9

8:                                                ; preds = %1
  ret ptr %7

9:                                                ; preds = %1
  %10 = landingpad { ptr, i32 }
          cleanup
  %11 = extractvalue { ptr, i32 } %10, 0
  store ptr %11, ptr %3, align 8
  %12 = extractvalue { ptr, i32 } %10, 1
  store i32 %12, ptr %4, align 4
  call void @_ZdlPvR22small_object_allocator(ptr noundef %7, ptr noundef nonnull align 8 dereferenceable(520) %6) #3
  br label %13

13:                                               ; preds = %9
  %14 = load ptr, ptr %3, align 8
  %15 = load i32, ptr %4, align 4
  %16 = insertvalue { ptr, i32 } poison, ptr %14, 0
  %17 = insertvalue { ptr, i32 } %16, i32 %15, 1
  resume { ptr, i32 } %17
}

; Function Attrs: mustprogress uwtable
define linkonce_odr hidden void @_ZN11realclosure7manager3imp3delERNS_3numE(ptr noundef nonnull align 8 dereferenceable(1497) %0, ptr noundef nonnull align 8 dereferenceable(8) %1) #6 comdat align 2 {
  %3 = alloca ptr, align 8
  %4 = alloca ptr, align 8
  store ptr %0, ptr %3, align 8, !tbaa !28
  store ptr %1, ptr %4, align 8, !tbaa !76
  %5 = load ptr, ptr %3, align 8
  %6 = load ptr, ptr %4, align 8, !tbaa !76
  %7 = getelementptr inbounds nuw %"class.realclosure::num", ptr %6, i32 0, i32 0
  %8 = load ptr, ptr %7, align 8, !tbaa !78
  call void @_ZN11realclosure7manager3imp7dec_refEPNS_5valueE(ptr noundef nonnull align 8 dereferenceable(1497) %5, ptr noundef %8)
  %9 = load ptr, ptr %4, align 8, !tbaa !76
  %10 = getelementptr inbounds nuw %"class.realclosure::num", ptr %9, i32 0, i32 0
  store ptr null, ptr %10, align 8, !tbaa !78
  ret void
}

; Function Attrs: mustprogress uwtable
define linkonce_odr hidden void @_ZN11realclosure7manager3imp5resetERNS_3numE(ptr noundef nonnull align 8 dereferenceable(1497) %0, ptr noundef nonnull align 8 dereferenceable(8) %1) #6 comdat align 2 {
  %3 = alloca ptr, align 8
  %4 = alloca ptr, align 8
  store ptr %0, ptr %3, align 8, !tbaa !28
  store ptr %1, ptr %4, align 8, !tbaa !76
  %5 = load ptr, ptr %3, align 8
  %6 = load ptr, ptr %4, align 8, !tbaa !76
  call void @_ZN11realclosure7manager3imp3delERNS_3numE(ptr noundef nonnull align 8 dereferenceable(1497) %5, ptr noundef nonnull align 8 dereferenceable(8) %6)
  ret void
}

; Function Attrs: mustprogress uwtable
define linkonce_odr hidden noundef zeroext i1 @_ZN11mpq_managerILb0EE7is_zeroERK3mpq(ptr noundef nonnull align 8 dereferenceable(32) %0) #6 comdat align 2 {
  %2 = alloca ptr, align 8
  store ptr %0, ptr %2, align 8, !tbaa !96
  %3 = load ptr, ptr %2, align 8, !tbaa !96
  %4 = getelementptr inbounds nuw %class.mpq, ptr %3, i32 0, i32 0
  %5 = call noundef zeroext i1 @_ZN11mpq_managerILb0EE7is_zeroERK3mpz(ptr noundef nonnull align 8 dereferenceable(16) %4)
  ret i1 %5
}

; Function Attrs: mustprogress nounwind uwtable
define linkonce_odr hidden noundef nonnull align 8 dereferenceable(728) ptr @_ZNK11realclosure7manager3imp2qmEv(ptr noundef nonnull align 8 dereferenceable(1497) %0) #4 comdat align 2 {
  %2 = alloca ptr, align 8
  store ptr %0, ptr %2, align 8, !tbaa !28
  %3 = load ptr, ptr %2, align 8
  %4 = getelementptr inbounds nuw %"struct.realclosure::manager::imp", ptr %3, i32 0, i32 4
  %5 = load ptr, ptr %4, align 8, !tbaa !62
  ret ptr %5
}

; Function Attrs: mustprogress uwtable
define linkonce_odr hidden void @_ZN11realclosure7manager3imp3setERNS_3numERK3mpq(ptr noundef nonnull align 8 dereferenceable(1497) %0, ptr noundef nonnull align 8 dereferenceable(8) %1, ptr noundef nonnull align 8 dereferenceable(32) %2) #6 comdat align 2 {
  %4 = alloca ptr, align 8
  %5 = alloca ptr, align 8
  %6 = alloca ptr, align 8
  store ptr %0, ptr %4, align 8, !tbaa !28
  store ptr %1, ptr %5, align 8, !tbaa !76
  store ptr %2, ptr %6, align 8, !tbaa !96
  %7 = load ptr, ptr %4, align 8
  %8 = call noundef nonnull align 8 dereferenceable(728) ptr @_ZNK11realclosure7manager3imp2qmEv(ptr noundef nonnull align 8 dereferenceable(1497) %7)
  %9 = load ptr, ptr %6, align 8, !tbaa !96
  %10 = call noundef zeroext i1 @_ZN11mpq_managerILb0EE7is_zeroERK3mpq(ptr noundef nonnull align 8 dereferenceable(32) %9)
  br i1 %10, label %11, label %13

11:                                               ; preds = %3
  %12 = load ptr, ptr %5, align 8, !tbaa !76
  call void @_ZN11realclosure7manager3imp5resetERNS_3numE(ptr noundef nonnull align 8 dereferenceable(1497) %7, ptr noundef nonnull align 8 dereferenceable(8) %12)
  br label %23

13:                                               ; preds = %3
  %14 = load ptr, ptr %5, align 8, !tbaa !76
  call void @_ZN11realclosure7manager3imp3delERNS_3numE(ptr noundef nonnull align 8 dereferenceable(1497) %7, ptr noundef nonnull align 8 dereferenceable(8) %14)
  %15 = call noundef ptr @_ZN11realclosure7manager3imp11mk_rationalEv(ptr noundef nonnull align 8 dereferenceable(1497) %7)
  %16 = load ptr, ptr %5, align 8, !tbaa !76
  %17 = getelementptr inbounds nuw %"class.realclosure::num", ptr %16, i32 0, i32 0
  store ptr %15, ptr %17, align 8, !tbaa !78
  %18 = load ptr, ptr %5, align 8, !tbaa !76
  %19 = getelementptr inbounds nuw %"class.realclosure::num", ptr %18, i32 0, i32 0
  %20 = load ptr, ptr %19, align 8, !tbaa !78
  call void @_ZN11realclosure7manager3imp7inc_refEPNS_5valueE(ptr noundef nonnull align 8 dereferenceable(1497) %7, ptr noundef %20)
  %21 = load ptr, ptr %5, align 8, !tbaa !76
  %22 = load ptr, ptr %6, align 8, !tbaa !96
  call void @_ZN11realclosure7manager3imp16update_mpq_valueIK3mpqEEvRNS_3numERT_(ptr noundef nonnull align 8 dereferenceable(1497) %7, ptr noundef nonnull align 8 dereferenceable(8) %21, ptr noundef nonnull align 8 dereferenceable(32) %22)
  br label %23

23:                                               ; preds = %13, %11
  ret void
}

; Function Attrs: mustprogress uwtable
define hidden void @_ZN11realclosure7manager3setERNS_3numERK3mpq(ptr noundef nonnull align 8 dereferenceable(8) %0, ptr noundef nonnull align 8 dereferenceable(8) %1, ptr noundef nonnull align 8 dereferenceable(32) %2) #6 align 2 {
  %4 = alloca ptr, align 8
  %5 = alloca ptr, align 8
  %6 = alloca ptr, align 8
  store ptr %0, ptr %4, align 8, !tbaa !15
  store ptr %1, ptr %5, align 8, !tbaa !76
  store ptr %2, ptr %6, align 8, !tbaa !96
  %7 = load ptr, ptr %4, align 8
  %8 = getelementptr inbounds nuw %"class.realclosure::manager", ptr %7, i32 0, i32 0
  %9 = load ptr, ptr %8, align 8, !tbaa !25
  %10 = load ptr, ptr %5, align 8, !tbaa !76
  %11 = load ptr, ptr %6, align 8, !tbaa !96
  call void @_ZN11realclosure7manager3imp3setERNS_3numERK3mpq(ptr noundef nonnull align 8 dereferenceable(1497) %9, ptr noundef nonnull align 8 dereferenceable(8) %10, ptr noundef nonnull align 8 dereferenceable(32) %11)
  ret void
}