; Function Attrs: mustprogress uwtable
define hidden void @_ZN11realclosure7manager3setERNS_3numERK3mpq(ptr noundef nonnull readonly align 8 captures(none) dereferenceable(8) %0, ptr noundef nonnull align 8 captures(none) dereferenceable(8) %1, ptr noundef nonnull align 8 dereferenceable(32) %2) local_unnamed_addr #5 align 2 personality ptr @__gxx_personality_v0 {
  %4 = load ptr, ptr %0, align 8, !tbaa !11
  %5 = load i32, ptr %2, align 8, !tbaa !58
  %6 = icmp eq i32 %5, 0
  %7 = load ptr, ptr %1, align 8, !tbaa !84
  tail call void @_ZN11realclosure7manager3imp7dec_refEPNS_5valueE(ptr noundef nonnull align 8 dereferenceable(1497) %4, ptr noundef %7)
  store ptr null, ptr %1, align 8, !tbaa !84
  br i1 %6, label %_ZN11realclosure7manager3imp3setERNS_3numERK3mpq.exit, label %_ZN11realclosure7manager3imp7inc_refEPNS_5valueE.exit.i

_ZN11realclosure7manager3imp7inc_refEPNS_5valueE.exit.i: ; preds = %3
  %8 = getelementptr inbounds nuw i8, ptr %4, i64 8
  %9 = load ptr, ptr %8, align 8, !tbaa !16
  %10 = tail call noundef ptr @_ZN22small_object_allocator8allocateEm(ptr noundef nonnull align 8 dereferenceable(520) %9, i64 noundef 104)
  %11 = getelementptr inbounds nuw i8, ptr %10, i64 4
  store i8 1, ptr %11, align 4, !tbaa !61
  %12 = getelementptr inbounds nuw i8, ptr %10, i64 8
  store i32 0, ptr %12, align 8, !tbaa !58
  %13 = getelementptr inbounds nuw i8, ptr %10, i64 12
  %14 = load i8, ptr %13, align 4
  %15 = and i8 %14, -4
  store i8 %15, ptr %13, align 4
  %16 = getelementptr inbounds nuw i8, ptr %10, i64 16
  store ptr null, ptr %16, align 8, !tbaa !59
  %17 = getelementptr inbounds nuw i8, ptr %10, i64 24
  store i32 0, ptr %17, align 8, !tbaa !60
  %18 = getelementptr inbounds nuw i8, ptr %10, i64 32
  store i32 0, ptr %18, align 8, !tbaa !58
  %19 = getelementptr inbounds nuw i8, ptr %10, i64 36
  %20 = load i8, ptr %19, align 4
  %21 = and i8 %20, -4
  store i8 %21, ptr %19, align 4
  %22 = getelementptr inbounds nuw i8, ptr %10, i64 40
  store ptr null, ptr %22, align 8, !tbaa !59
  %23 = getelementptr inbounds nuw i8, ptr %10, i64 48
  store i32 0, ptr %23, align 8, !tbaa !60
  %24 = getelementptr inbounds nuw i8, ptr %10, i64 56
  store i32 16843009, ptr %24, align 8
  %25 = getelementptr inbounds nuw i8, ptr %10, i64 64
  store ptr null, ptr %25, align 8, !tbaa !64
  %26 = getelementptr inbounds nuw i8, ptr %10, i64 72
  store i32 0, ptr %26, align 8, !tbaa !58
  %27 = getelementptr inbounds nuw i8, ptr %10, i64 76
  %28 = load i8, ptr %27, align 4
  %29 = and i8 %28, -4
  store i8 %29, ptr %27, align 4
  %30 = getelementptr inbounds nuw i8, ptr %10, i64 80
  store ptr null, ptr %30, align 8, !tbaa !59
  %31 = getelementptr inbounds nuw i8, ptr %10, i64 88
  store i32 1, ptr %31, align 8, !tbaa !58
  %32 = getelementptr inbounds nuw i8, ptr %10, i64 92
  %33 = load i8, ptr %32, align 4
  %34 = and i8 %33, -4
  store i8 %34, ptr %32, align 4
  %35 = getelementptr inbounds nuw i8, ptr %10, i64 96
  store ptr null, ptr %35, align 8, !tbaa !59
  store ptr %10, ptr %1, align 8, !tbaa !84
  store i32 1, ptr %10, align 8, !tbaa !66
  tail call void @_ZN11realclosure7manager3imp16update_mpq_valueIK3mpqEEvPNS_5valueERT_(ptr noundef nonnull align 8 dereferenceable(1497) %4, ptr noundef nonnull %10, ptr noundef nonnull align 8 dereferenceable(32) %2)
  br label %_ZN11realclosure7manager3imp3setERNS_3numERK3mpq.exit

_ZN11realclosure7manager3imp3setERNS_3numERK3mpq.exit: ; preds = %3, %_ZN11realclosure7manager3imp7inc_refEPNS_5valueE.exit.i
  ret void
}